; Function Attrs: mustprogress nofree norecurse nosync nounwind willreturn memory(read, inaccessiblemem: none) uwtable
define noundef i32 @_ZNK7Imf_3_221DeepScanLineInputFile19lastScanLineInChunkEi(ptr nocapture noundef nonnull readonly align 8 dereferenceable(16) %this, i32 noundef %y) local_unnamed_addr #11 align 2 {
entry:
  %_data.i = getelementptr inbounds i8, ptr %this, i64 8
  %0 = load ptr, ptr %_data.i, align 8
  %minY.i = getelementptr inbounds i8, ptr %0, i64 220
  %1 = load i32, ptr %minY.i, align 4
  %.fr.i = freeze i32 %1
  %sub.i = sub i32 %y, %.fr.i
  %linesInBuffer.i = getelementptr inbounds i8, ptr %0, i64 360
  %2 = load i32, ptr %linesInBuffer.i, align 8
  %3 = srem i32 %sub.i, %2
  %mul.i = add i32 %.fr.i, -1
  %add.i = add i32 %mul.i, %2
  %add = sub i32 %add.i, %3
  %sub = add i32 %add, %sub.i
  %maxY = getelementptr inbounds i8, ptr %0, i64 224
  %4 = load i32, ptr %maxY, align 4
  %.sroa.speculated = tail call i32 @llvm.smin.i32(i32 %4, i32 %sub)
  ret i32 %.sroa.speculated
}